target datalayout = "e-m:e-p270:32:32-p271:32:32-p272:64:64-i64:64-i128:128-f80:128-n8:16:32:64-S128"
target triple = "x86_64-pc-linux-gnu"

%"class.net::TcpCubicSenderBase" = type <{ %"class.net::SendAlgorithmInterface", %"class.net::HybridSlowStart", %"class.net::PrrSender", ptr, ptr, i8, [3 x i8], i32, i64, i64, i64, i8, i8, i8, i8, i8, [3 x i8] }>
%"class.net::SendAlgorithmInterface" = type { ptr }
%"class.net::HybridSlowStart" = type { i8, i32, i64, i64, i32, %"class.net::QuicTime::Delta" }
%"class.net::QuicTime::Delta" = type { %"class.base::TimeDelta", i64 }
%"class.base::TimeDelta" = type { i64 }
%"class.net::PrrSender" = type { i64, i64, i64, i64 }

; Function Attrs: mustprogress nounwind uwtable
define noundef float @_ZNK3net18TcpCubicSenderBase8RenoBetaEv(ptr noundef nonnull align 8 dereferenceable(141) %0) #3 align 2 {
  %2 = alloca ptr, align 8
  store ptr %0, ptr %2, align 8, !tbaa !3
  %3 = load ptr, ptr %2, align 8
  %4 = getelementptr inbounds nuw %"class.net::TcpCubicSenderBase", ptr %3, i32 0, i32 7
  %5 = load i32, ptr %4, align 4, !tbaa !32
  %6 = sub i32 %5, 1
  %7 = uitofp i32 %6 to float
  %8 = fadd float %7, 0x3FE6666660000000
  %9 = getelementptr inbounds nuw %"class.net::TcpCubicSenderBase", ptr %3, i32 0, i32 7
  %10 = load i32, ptr %9, align 4, !tbaa !32
  %11 = uitofp i32 %10 to float
  %12 = fdiv float %8, %11
  ret float %12
}